target datalayout = "e-m:e-p270:32:32-p271:32:32-p272:64:64-i64:64-i128:128-f80:128-n8:16:32:64-S128"
target triple = "x86_64-pc-linux-gnu"

%"class.cvc5::internal::NodeTemplate" = type { ptr }
%"class.cvc5::internal::NodeTemplate.484" = type { ptr }
%"class.std::__cxx11::basic_string" = type { %"struct.std::__cxx11::basic_string<char>::_Alloc_hider", i64, %union.anon }
%"struct.std::__cxx11::basic_string<char>::_Alloc_hider" = type { ptr }
%union.anon = type { i64, [8 x i8] }
%"class.cvc5::internal::prop::PropEngine" = type { %"class.cvc5::internal::EnvObj", i8, ptr, %"class.std::unique_ptr", ptr, ptr, %"class.std::vector", ptr, %"class.cvc5::internal::CDProof", %"class.std::unique_ptr.15", i8, [7 x i8], %"class.cvc5::context::CDList", %"struct.cvc5::internal::prop::PropEngine::Statistics" }
%"class.cvc5::internal::EnvObj" = type { ptr, ptr }
%"class.std::unique_ptr" = type { %"struct.std::__uniq_ptr_data" }
%"struct.std::__uniq_ptr_data" = type { %"class.std::__uniq_ptr_impl" }
%"class.std::__uniq_ptr_impl" = type { %"class.std::tuple" }
%"class.std::tuple" = type { %"struct.std::_Tuple_impl" }
%"struct.std::_Tuple_impl" = type { %"struct.std::_Head_base.1" }
%"struct.std::_Head_base.1" = type { ptr }
%"class.std::vector" = type { %"struct.std::_Vector_base" }
%"struct.std::_Vector_base" = type { %"struct.std::_Vector_base<cvc5::internal::NodeTemplate<true>, std::allocator<cvc5::internal::NodeTemplate<true>>>::_Vector_impl" }
%"struct.std::_Vector_base<cvc5::internal::NodeTemplate<true>, std::allocator<cvc5::internal::NodeTemplate<true>>>::_Vector_impl" = type { %"struct.std::_Vector_base<cvc5::internal::NodeTemplate<true>, std::allocator<cvc5::internal::NodeTemplate<true>>>::_Vector_impl_data" }
%"struct.std::_Vector_base<cvc5::internal::NodeTemplate<true>, std::allocator<cvc5::internal::NodeTemplate<true>>>::_Vector_impl_data" = type { ptr, ptr, ptr }
%"class.cvc5::internal::CDProof" = type <{ %"class.cvc5::internal::EnvObj", %"class.cvc5::internal::ProofGenerator", %"class.cvc5::context::Context", %"class.cvc5::context::CDHashMap", %"class.std::__cxx11::basic_string", i8, [7 x i8] }>
%"class.cvc5::internal::ProofGenerator" = type { ptr }
%"class.cvc5::context::Context" = type { ptr, %"class.std::vector.2", ptr, ptr }
%"class.std::vector.2" = type { %"struct.std::_Vector_base.3" }
%"struct.std::_Vector_base.3" = type { %"struct.std::_Vector_base<cvc5::context::Scope *, std::allocator<cvc5::context::Scope *>>::_Vector_impl" }
%"struct.std::_Vector_base<cvc5::context::Scope *, std::allocator<cvc5::context::Scope *>>::_Vector_impl" = type { %"struct.std::_Vector_base<cvc5::context::Scope *, std::allocator<cvc5::context::Scope *>>::_Vector_impl_data" }
%"struct.std::_Vector_base<cvc5::context::Scope *, std::allocator<cvc5::context::Scope *>>::_Vector_impl_data" = type { ptr, ptr, ptr }
%"class.cvc5::context::CDHashMap" = type { %"class.cvc5::context::ContextObj", %"class.std::unordered_map", ptr, ptr }
%"class.cvc5::context::ContextObj" = type { ptr, ptr, ptr, ptr, ptr }
%"class.std::unordered_map" = type { %"class.std::_Hashtable" }
%"class.std::_Hashtable" = type { ptr, i64, %"struct.std::__detail::_Hash_node_base", i64, %"struct.std::__detail::_Prime_rehash_policy", ptr }
%"struct.std::__detail::_Hash_node_base" = type { ptr }
%"struct.std::__detail::_Prime_rehash_policy" = type { float, i64 }
%"class.std::unique_ptr.15" = type { %"struct.std::__uniq_ptr_data.16" }
%"struct.std::__uniq_ptr_data.16" = type { %"class.std::__uniq_ptr_impl.17" }
%"class.std::__uniq_ptr_impl.17" = type { %"class.std::tuple.18" }
%"class.std::tuple.18" = type { %"struct.std::_Tuple_impl.19" }
%"struct.std::_Tuple_impl.19" = type { %"struct.std::_Head_base.22" }
%"struct.std::_Head_base.22" = type { ptr }
%"class.cvc5::context::CDList" = type <{ %"class.cvc5::context::ContextObj", %"class.std::vector", i64, i8, [7 x i8] }>
%"struct.cvc5::internal::prop::PropEngine::Statistics" = type { %"class.cvc5::internal::IntStat" }
%"class.cvc5::internal::IntStat" = type { %"class.cvc5::internal::ValueStat" }
%"class.cvc5::internal::ValueStat" = type { ptr }
%"class.cvc5::internal::TrustNode" = type { i32, %"class.cvc5::internal::NodeTemplate", ptr }

; Function Attrs: mustprogress nounwind uwtable
define linkonce_odr hidden void @_ZN4cvc58internal12NodeTemplateILb0EED2Ev(ptr noundef nonnull align 8 dereferenceable(8) %0) unnamed_addr #4 comdat align 2 {
  %2 = alloca ptr, align 8
  store ptr %0, ptr %2, align 8, !tbaa !351
  ret void
}

; Function Attrs: mustprogress nounwind uwtable
define linkonce_odr hidden void @_ZN4cvc58internal12NodeTemplateILb0EEC2ERKS2_(ptr noundef nonnull align 8 dereferenceable(8) %0, ptr noundef nonnull align 8 dereferenceable(8) %1) unnamed_addr #4 comdat align 2 {
  %3 = alloca ptr, align 8
  %4 = alloca ptr, align 8
  store ptr %0, ptr %3, align 8, !tbaa !351
  store ptr %1, ptr %4, align 8, !tbaa !351
  %5 = load ptr, ptr %3, align 8
  %6 = load ptr, ptr %4, align 8, !tbaa !351
  %7 = getelementptr inbounds nuw %"class.cvc5::internal::NodeTemplate.484", ptr %6, i32 0, i32 0
  %8 = load ptr, ptr %7, align 8, !tbaa !357
  %9 = getelementptr inbounds nuw %"class.cvc5::internal::NodeTemplate.484", ptr %5, i32 0, i32 0
  store ptr %8, ptr %9, align 8, !tbaa !357
  ret void
}

; Function Attrs: mustprogress uwtable
define hidden void @_ZN4cvc58internal4prop10PropEngine10preprocessENS0_12NodeTemplateILb0EEERSt6vectorINS0_6theory11SkolemLemmaESaIS7_EE(ptr dead_on_unwind noalias writable sret(%"class.cvc5::internal::TrustNode") align 8 %0, ptr noundef nonnull align 8 dereferenceable(416) %1, ptr noundef %2, ptr noundef nonnull align 8 dereferenceable(24) %3) #6 align 2 personality ptr @__gxx_personality_v0 {
  %5 = alloca ptr, align 8
  %6 = alloca ptr, align 8
  %7 = alloca ptr, align 8
  %8 = alloca ptr, align 8
  %9 = alloca %"class.cvc5::internal::NodeTemplate.484", align 8
  %10 = alloca ptr, align 8
  %11 = alloca i32, align 4
  store ptr %0, ptr %5, align 8
  store ptr %1, ptr %6, align 8, !tbaa !16
  store ptr %2, ptr %7, align 8, !tbaa !351
  store ptr %3, ptr %8, align 8, !tbaa !360
  %12 = load ptr, ptr %6, align 8
  %13 = getelementptr inbounds nuw %"class.cvc5::internal::prop::PropEngine", ptr %12, i32 0, i32 4
  %14 = load ptr, ptr %13, align 8, !tbaa !84
  call void @_ZN4cvc58internal12NodeTemplateILb0EEC2ERKS2_(ptr noundef nonnull align 8 dereferenceable(8) %9, ptr noundef nonnull align 8 dereferenceable(8) %2)
  %15 = load ptr, ptr %8, align 8, !tbaa !360
  invoke void @_ZN4cvc58internal4prop11TheoryProxy10preprocessENS0_12NodeTemplateILb0EEERSt6vectorINS0_6theory11SkolemLemmaESaIS7_EE(ptr dead_on_unwind writable sret(%"class.cvc5::internal::TrustNode") align 8 %0, ptr noundef nonnull align 8 dereferenceable(521) %14, ptr noundef %9, ptr noundef nonnull align 8 dereferenceable(24) %15)
          to label %16 unwind label %17

16:                                               ; preds = %4
  call void @_ZN4cvc58internal12NodeTemplateILb0EED2Ev(ptr noundef nonnull align 8 dereferenceable(8) %9) #3
  ret void

17:                                               ; preds = %4
  %18 = landingpad { ptr, i32 }
          cleanup
  %19 = extractvalue { ptr, i32 } %18, 0
  store ptr %19, ptr %10, align 8
  %20 = extractvalue { ptr, i32 } %18, 1
  store i32 %20, ptr %11, align 4
  call void @_ZN4cvc58internal12NodeTemplateILb0EED2Ev(ptr noundef nonnull align 8 dereferenceable(8) %9) #3
  br label %21

21:                                               ; preds = %17
  %22 = load ptr, ptr %10, align 8
  %23 = load i32, ptr %11, align 4
  %24 = insertvalue { ptr, i32 } poison, ptr %22, 0
  %25 = insertvalue { ptr, i32 } %24, i32 %23, 1
  resume { ptr, i32 } %25
}